target datalayout = "e-m:e-p270:32:32-p271:32:32-p272:64:64-i64:64-i128:128-f80:128-n8:16:32:64-S128"
target triple = "x86_64-unknown-linux-gnu"

%"struct.Imf_3_2::Chromaticities" = type { %"class.Imath_3_2::Vec2", %"class.Imath_3_2::Vec2", %"class.Imath_3_2::Vec2", %"class.Imath_3_2::Vec2" }
%"class.Imath_3_2::Vec2" = type { float, float }
%"class.Imf_3_2::AcesOutputFile::Data" = type { ptr }
%"class.Imf_3_2::Header" = type <{ %"class.std::map", i8, [7 x i8] }>
%"class.std::map" = type { %"class.std::_Rb_tree" }
%"class.std::_Rb_tree" = type { %"struct.std::_Rb_tree<Imf_3_2::Name, std::pair<const Imf_3_2::Name, Imf_3_2::Attribute *>, std::_Select1st<std::pair<const Imf_3_2::Name, Imf_3_2::Attribute *>>, std::less<Imf_3_2::Name>>::_Rb_tree_impl" }
%"struct.std::_Rb_tree<Imf_3_2::Name, std::pair<const Imf_3_2::Name, Imf_3_2::Attribute *>, std::_Select1st<std::pair<const Imf_3_2::Name, Imf_3_2::Attribute *>>, std::less<Imf_3_2::Name>>::_Rb_tree_impl" = type { %"struct.std::_Rb_tree_key_compare", %"struct.std::_Rb_tree_header" }
%"struct.std::_Rb_tree_key_compare" = type { %"struct.std::less" }
%"struct.std::less" = type { i8 }
%"struct.std::_Rb_tree_header" = type { %"struct.std::_Rb_tree_node_base", i64 }
%"struct.std::_Rb_tree_node_base" = type { i32, ptr, ptr, ptr }
%"class.Imf_3_2::AcesOutputFile" = type { ptr, ptr }

@_ZZN7Imf_3_218acesChromaticitiesEvE7acesChr = internal global %"struct.Imf_3_2::Chromaticities" zeroinitializer, align 4
@_ZGVZN7Imf_3_218acesChromaticitiesEvE7acesChr = internal global i64 0, align 8
@_ZTVN7Imf_3_214AcesOutputFileE = unnamed_addr constant { [4 x ptr] } { [4 x ptr] [ptr null, ptr @_ZTIN7Imf_3_214AcesOutputFileE, ptr @_ZN7Imf_3_214AcesOutputFileD1Ev, ptr @_ZN7Imf_3_214AcesOutputFileD0Ev] }, align 8
@.str = private unnamed_addr constant [40 x i8] c"Invalid compression type for ACES file.\00", align 1
@_ZTIN7Iex_3_26ArgExcE = external constant ptr
@_ZN7Imf_3_214AcesOutputFile4DataC1Ev = hidden unnamed_addr alias void (ptr), ptr @_ZN7Imf_3_214AcesOutputFile4DataC2Ev

; Function Attrs: mustprogress nounwind uwtable
define linkonce_odr hidden void @_ZN9Imath_3_24Vec2IfEC2Eff(ptr noundef nonnull align 4 dereferenceable(8) %this, float noundef %a, float noundef %b) unnamed_addr #5 comdat align 2 {
entry:
  %this.addr = alloca ptr, align 8
  %a.addr = alloca float, align 4
  %b.addr = alloca float, align 4
  store ptr %this, ptr %this.addr, align 8
  store float %a, ptr %a.addr, align 4
  store float %b, ptr %b.addr, align 4
  %this1 = load ptr, ptr %this.addr, align 8
  %x = getelementptr inbounds %"class.Imath_3_2::Vec2", ptr %this1, i32 0, i32 0
  %0 = load float, ptr %a.addr, align 4
  store float %0, ptr %x, align 4
  %y = getelementptr inbounds %"class.Imath_3_2::Vec2", ptr %this1, i32 0, i32 1
  %1 = load float, ptr %b.addr, align 4
  store float %1, ptr %y, align 4
  ret void
}

; Function Attrs: mustprogress uwtable
define hidden noundef nonnull align 4 dereferenceable(32) ptr @_ZN7Imf_3_218acesChromaticitiesEv() #4 personality ptr @__gxx_personality_v0 {
entry:
  %ref.tmp = alloca %"class.Imath_3_2::Vec2", align 4
  %ref.tmp1 = alloca %"class.Imath_3_2::Vec2", align 4
  %ref.tmp2 = alloca %"class.Imath_3_2::Vec2", align 4
  %ref.tmp3 = alloca %"class.Imath_3_2::Vec2", align 4
  %exn.slot = alloca ptr, align 8
  %ehselector.slot = alloca i32, align 4
  %0 = load atomic i8, ptr @_ZGVZN7Imf_3_218acesChromaticitiesEvE7acesChr acquire, align 8
  %guard.uninitialized = icmp eq i8 %0, 0
  br i1 %guard.uninitialized, label %init.check, label %init.end, !prof !4

init.check:                                       ; preds = %entry
  %1 = call i32 @__cxa_guard_acquire(ptr @_ZGVZN7Imf_3_218acesChromaticitiesEvE7acesChr) #3
  %tobool = icmp ne i32 %1, 0
  br i1 %tobool, label %init, label %init.end

init:                                             ; preds = %init.check
  call void @_ZN9Imath_3_24Vec2IfEC2Eff(ptr noundef nonnull align 4 dereferenceable(8) %ref.tmp, float noundef 0x3FE782A9A0000000, float noundef 0x3FD0FAACE0000000) #3
  call void @_ZN9Imath_3_24Vec2IfEC2Eff(ptr noundef nonnull align 4 dereferenceable(8) %ref.tmp1, float noundef 0.000000e+00, float noundef 1.000000e+00) #3
  call void @_ZN9Imath_3_24Vec2IfEC2Eff(ptr noundef nonnull align 4 dereferenceable(8) %ref.tmp2, float noundef 0x3F1A36E2E0000000, float noundef 0xBFB3B645A0000000) #3
  call void @_ZN9Imath_3_24Vec2IfEC2Eff(ptr noundef nonnull align 4 dereferenceable(8) %ref.tmp3, float noundef 0x3FD49667C0000000, float noundef 0x3FD59C62A0000000) #3
  invoke void @_ZN7Imf_3_214ChromaticitiesC1ERKN9Imath_3_24Vec2IfEES5_S5_S5_(ptr noundef nonnull align 4 dereferenceable(32) @_ZZN7Imf_3_218acesChromaticitiesEvE7acesChr, ptr noundef nonnull align 4 dereferenceable(8) %ref.tmp, ptr noundef nonnull align 4 dereferenceable(8) %ref.tmp1, ptr noundef nonnull align 4 dereferenceable(8) %ref.tmp2, ptr noundef nonnull align 4 dereferenceable(8) %ref.tmp3)
          to label %invoke.cont unwind label %lpad

invoke.cont:                                      ; preds = %init
  call void @__cxa_guard_release(ptr @_ZGVZN7Imf_3_218acesChromaticitiesEvE7acesChr) #3
  br label %init.end

init.end:                                         ; preds = %invoke.cont, %init.check, %entry
  ret ptr @_ZZN7Imf_3_218acesChromaticitiesEvE7acesChr

lpad:                                             ; preds = %init
  %2 = landingpad { ptr, i32 }
          cleanup
  %3 = extractvalue { ptr, i32 } %2, 0
  store ptr %3, ptr %exn.slot, align 8
  %4 = extractvalue { ptr, i32 } %2, 1
  store i32 %4, ptr %ehselector.slot, align 4
  call void @__cxa_guard_abort(ptr @_ZGVZN7Imf_3_218acesChromaticitiesEvE7acesChr) #3
  br label %eh.resume

eh.resume:                                        ; preds = %lpad
  %exn = load ptr, ptr %exn.slot, align 8
  %sel = load i32, ptr %ehselector.slot, align 4
  %lpad.val = insertvalue { ptr, i32 } poison, ptr %exn, 0
  %lpad.val4 = insertvalue { ptr, i32 } %lpad.val, i32 %sel, 1
  resume { ptr, i32 } %lpad.val4
}

; Function Attrs: mustprogress uwtable
define internal void @_ZN7Imf_3_212_GLOBAL__N_116checkCompressionENS_11CompressionE(i32 noundef %compression) #4 personality ptr @__gxx_personality_v0 {
entry:
  %compression.addr = alloca i32, align 4
  %exn.slot = alloca ptr, align 8
  %ehselector.slot = alloca i32, align 4
  store i32 %compression, ptr %compression.addr, align 4
  %0 = load i32, ptr %compression.addr, align 4
  switch i32 %0, label %sw.default [
    i32 0, label %sw.bb
    i32 4, label %sw.bb
    i32 7, label %sw.bb
  ]

sw.bb:                                            ; preds = %entry, %entry, %entry
  br label %sw.epilog

sw.default:                                       ; preds = %entry
  %exception = call ptr @__cxa_allocate_exception(i64 72) #3
  invoke void @_ZN7Iex_3_26ArgExcC1EPKc(ptr noundef nonnull align 8 dereferenceable(72) %exception, ptr noundef @.str)
          to label %invoke.cont unwind label %lpad

invoke.cont:                                      ; preds = %sw.default
  call void @__cxa_throw(ptr %exception, ptr @_ZTIN7Iex_3_26ArgExcE, ptr @_ZN7Iex_3_26ArgExcD1Ev) #13
  unreachable

lpad:                                             ; preds = %sw.default
  %1 = landingpad { ptr, i32 }
          cleanup
  %2 = extractvalue { ptr, i32 } %1, 0
  store ptr %2, ptr %exn.slot, align 8
  %3 = extractvalue { ptr, i32 } %1, 1
  store i32 %3, ptr %ehselector.slot, align 4
  call void @__cxa_free_exception(ptr %exception) #3
  br label %eh.resume

sw.epilog:                                        ; preds = %sw.bb
  ret void

eh.resume:                                        ; preds = %lpad
  %exn = load ptr, ptr %exn.slot, align 8
  %sel = load i32, ptr %ehselector.slot, align 4
  %lpad.val = insertvalue { ptr, i32 } poison, ptr %exn, 0
  %lpad.val1 = insertvalue { ptr, i32 } %lpad.val, i32 %sel, 1
  resume { ptr, i32 } %lpad.val1
}

; Function Attrs: mustprogress uwtable
define void @_ZN7Imf_3_214AcesOutputFileC2ERKNSt7__cxx1112basic_stringIcSt11char_traitsIcESaIcEEEiiNS_12RgbaChannelsEfN9Imath_3_24Vec2IfEEfNS_9LineOrderENS_11CompressionEi(ptr noundef nonnull align 8 dereferenceable(16) %this, ptr noundef nonnull align 8 dereferenceable(32) %name, i32 noundef %width, i32 noundef %height, i32 noundef %rgbaChannels, float noundef %pixelAspectRatio, ptr noundef %screenWindowCenter, float noundef %screenWindowWidth, i32 noundef %lineOrder, i32 noundef %compression, i32 noundef %numThreads) unnamed_addr #4 align 2 personality ptr @__gxx_personality_v0 {
entry:
  %this.addr = alloca ptr, align 8
  %name.addr = alloca ptr, align 8
  %width.addr = alloca i32, align 4
  %height.addr = alloca i32, align 4
  %rgbaChannels.addr = alloca i32, align 4
  %pixelAspectRatio.addr = alloca float, align 4
  %screenWindowCenter.indirect_addr = alloca ptr, align 8
  %screenWindowWidth.addr = alloca float, align 4
  %lineOrder.addr = alloca i32, align 4
  %compression.addr = alloca i32, align 4
  %numThreads.addr = alloca i32, align 4
  %exn.slot = alloca ptr, align 8
  %ehselector.slot = alloca i32, align 4
  %newHeader = alloca %"class.Imf_3_2::Header", align 8
  store ptr %this, ptr %this.addr, align 8
  store ptr %name, ptr %name.addr, align 8
  store i32 %width, ptr %width.addr, align 4
  store i32 %height, ptr %height.addr, align 4
  store i32 %rgbaChannels, ptr %rgbaChannels.addr, align 4
  store float %pixelAspectRatio, ptr %pixelAspectRatio.addr, align 4
  store ptr %screenWindowCenter, ptr %screenWindowCenter.indirect_addr, align 8
  store float %screenWindowWidth, ptr %screenWindowWidth.addr, align 4
  store i32 %lineOrder, ptr %lineOrder.addr, align 4
  store i32 %compression, ptr %compression.addr, align 4
  store i32 %numThreads, ptr %numThreads.addr, align 4
  %this1 = load ptr, ptr %this.addr, align 8
  store ptr getelementptr inbounds ({ [4 x ptr] }, ptr @_ZTVN7Imf_3_214AcesOutputFileE, i32 0, i32 0, i32 2), ptr %this1, align 8
  %_data = getelementptr inbounds %"class.Imf_3_2::AcesOutputFile", ptr %this1, i32 0, i32 1
  %call = call noalias noundef nonnull ptr @_Znwm(i64 noundef 8) #11
  invoke void @_ZN7Imf_3_214AcesOutputFile4DataC1Ev(ptr noundef nonnull align 8 dereferenceable(8) %call)
          to label %invoke.cont unwind label %lpad

invoke.cont:                                      ; preds = %entry
  store ptr %call, ptr %_data, align 8
  %0 = load i32, ptr %compression.addr, align 4
  call void @_ZN7Imf_3_212_GLOBAL__N_116checkCompressionENS_11CompressionE(i32 noundef %0)
  %1 = load i32, ptr %width.addr, align 4
  %2 = load i32, ptr %height.addr, align 4
  %3 = load float, ptr %pixelAspectRatio.addr, align 4
  %4 = load float, ptr %screenWindowWidth.addr, align 4
  %5 = load i32, ptr %lineOrder.addr, align 4
  %6 = load i32, ptr %compression.addr, align 4
  call void @_ZN7Imf_3_26HeaderC1EiifRKN9Imath_3_24Vec2IfEEfNS_9LineOrderENS_11CompressionE(ptr noundef nonnull align 8 dereferenceable(49) %newHeader, i32 noundef %1, i32 noundef %2, float noundef %3, ptr noundef nonnull align 4 dereferenceable(8) %screenWindowCenter, float noundef %4, i32 noundef %5, i32 noundef %6)
  %call4 = invoke noundef nonnull align 4 dereferenceable(32) ptr @_ZN7Imf_3_218acesChromaticitiesEv()
          to label %invoke.cont3 unwind label %lpad2

invoke.cont3:                                     ; preds = %invoke.cont
  invoke void @_ZN7Imf_3_217addChromaticitiesERNS_6HeaderERKNS_14ChromaticitiesE(ptr noundef nonnull align 8 dereferenceable(49) %newHeader, ptr noundef nonnull align 4 dereferenceable(32) %call4)
          to label %invoke.cont5 unwind label %lpad2

invoke.cont5:                                     ; preds = %invoke.cont3
  %call7 = invoke noundef nonnull align 4 dereferenceable(32) ptr @_ZN7Imf_3_218acesChromaticitiesEv()
          to label %invoke.cont6 unwind label %lpad2

invoke.cont6:                                     ; preds = %invoke.cont5
  %white = getelementptr inbounds %"struct.Imf_3_2::Chromaticities", ptr %call7, i32 0, i32 3
  invoke void @_ZN7Imf_3_217addAdoptedNeutralERNS_6HeaderERKN9Imath_3_24Vec2IfEE(ptr noundef nonnull align 8 dereferenceable(49) %newHeader, ptr noundef nonnull align 4 dereferenceable(8) %white)
          to label %invoke.cont8 unwind label %lpad2

invoke.cont8:                                     ; preds = %invoke.cont6
  %call10 = invoke noalias noundef nonnull ptr @_Znwm(i64 noundef 24) #11
          to label %invoke.cont9 unwind label %lpad2

invoke.cont9:                                     ; preds = %invoke.cont8
  %7 = load ptr, ptr %name.addr, align 8
  %call11 = call noundef ptr @_ZNKSt7__cxx1112basic_stringIcSt11char_traitsIcESaIcEE5c_strEv(ptr noundef nonnull align 8 dereferenceable(32) %7) #3
  %8 = load i32, ptr %rgbaChannels.addr, align 4
  %9 = load i32, ptr %numThreads.addr, align 4
  invoke void @_ZN7Imf_3_214RgbaOutputFileC1EPKcRKNS_6HeaderENS_12RgbaChannelsEi(ptr noundef nonnull align 8 dereferenceable(24) %call10, ptr noundef %call11, ptr noundef nonnull align 8 dereferenceable(49) %newHeader, i32 noundef %8, i32 noundef %9)
          to label %invoke.cont13 unwind label %lpad12

invoke.cont13:                                    ; preds = %invoke.cont9
  %_data14 = getelementptr inbounds %"class.Imf_3_2::AcesOutputFile", ptr %this1, i32 0, i32 1
  %10 = load ptr, ptr %_data14, align 8
  %rgbaFile = getelementptr inbounds %"class.Imf_3_2::AcesOutputFile::Data", ptr %10, i32 0, i32 0
  store ptr %call10, ptr %rgbaFile, align 8
  %_data15 = getelementptr inbounds %"class.Imf_3_2::AcesOutputFile", ptr %this1, i32 0, i32 1
  %11 = load ptr, ptr %_data15, align 8
  %rgbaFile16 = getelementptr inbounds %"class.Imf_3_2::AcesOutputFile::Data", ptr %11, i32 0, i32 0
  %12 = load ptr, ptr %rgbaFile16, align 8
  invoke void @_ZN7Imf_3_214RgbaOutputFile13setYCRoundingEjj(ptr noundef nonnull align 8 dereferenceable(24) %12, i32 noundef 7, i32 noundef 6)
          to label %invoke.cont17 unwind label %lpad2

invoke.cont17:                                    ; preds = %invoke.cont13
  call void @_ZN7Imf_3_26HeaderD1Ev(ptr noundef nonnull align 8 dereferenceable(49) %newHeader) #3
  ret void

lpad:                                             ; preds = %entry
  %13 = landingpad { ptr, i32 }
          cleanup
  %14 = extractvalue { ptr, i32 } %13, 0
  store ptr %14, ptr %exn.slot, align 8
  %15 = extractvalue { ptr, i32 } %13, 1
  store i32 %15, ptr %ehselector.slot, align 4
  call void @_ZdlPv(ptr noundef %call) #12
  br label %eh.resume

lpad2:                                            ; preds = %invoke.cont13, %invoke.cont8, %invoke.cont6, %invoke.cont5, %invoke.cont3, %invoke.cont
  %16 = landingpad { ptr, i32 }
          cleanup
  %17 = extractvalue { ptr, i32 } %16, 0
  store ptr %17, ptr %exn.slot, align 8
  %18 = extractvalue { ptr, i32 } %16, 1
  store i32 %18, ptr %ehselector.slot, align 4
  br label %ehcleanup

lpad12:                                           ; preds = %invoke.cont9
  %19 = landingpad { ptr, i32 }
          cleanup
  %20 = extractvalue { ptr, i32 } %19, 0
  store ptr %20, ptr %exn.slot, align 8
  %21 = extractvalue { ptr, i32 } %19, 1
  store i32 %21, ptr %ehselector.slot, align 4
  call void @_ZdlPv(ptr noundef %call10) #12
  br label %ehcleanup

ehcleanup:                                        ; preds = %lpad12, %lpad2
  call void @_ZN7Imf_3_26HeaderD1Ev(ptr noundef nonnull align 8 dereferenceable(49) %newHeader) #3
  br label %eh.resume

eh.resume:                                        ; preds = %ehcleanup, %lpad
  %exn = load ptr, ptr %exn.slot, align 8
  %sel = load i32, ptr %ehselector.slot, align 4
  %lpad.val = insertvalue { ptr, i32 } poison, ptr %exn, 0
  %lpad.val18 = insertvalue { ptr, i32 } %lpad.val, i32 %sel, 1
  resume { ptr, i32 } %lpad.val18
}