; Function Attrs: mustprogress uwtable
define void @_ZN7Imf_3_214AcesOutputFileC2ERKNSt7__cxx1112basic_stringIcSt11char_traitsIcESaIcEEEiiNS_12RgbaChannelsEfN9Imath_3_24Vec2IfEEfNS_9LineOrderENS_11CompressionEi(ptr nocapture noundef nonnull align 8 dereferenceable(16) %this, ptr noundef nonnull align 8 dereferenceable(32) %name, i32 noundef %width, i32 noundef %height, i32 noundef %rgbaChannels, float noundef %pixelAspectRatio, ptr noundef %screenWindowCenter, float noundef %screenWindowWidth, i32 noundef %lineOrder, i32 noundef %compression, i32 noundef %numThreads) unnamed_addr #3 align 2 personality ptr @__gxx_personality_v0 {
entry:
  %ref.tmp.i5 = alloca %"class.Imath_3_2::Vec2", align 8
  %ref.tmp1.i6 = alloca %"class.Imath_3_2::Vec2", align 8
  %ref.tmp2.i7 = alloca %"class.Imath_3_2::Vec2", align 8
  %ref.tmp3.i8 = alloca %"class.Imath_3_2::Vec2", align 8
  %ref.tmp.i = alloca %"class.Imath_3_2::Vec2", align 8
  %ref.tmp1.i = alloca %"class.Imath_3_2::Vec2", align 8
  %ref.tmp2.i = alloca %"class.Imath_3_2::Vec2", align 8
  %ref.tmp3.i = alloca %"class.Imath_3_2::Vec2", align 8
  %newHeader = alloca %"class.Imf_3_2::Header", align 8
  store ptr getelementptr inbounds ({ [4 x ptr] }, ptr @_ZTVN7Imf_3_214AcesOutputFileE, i64 0, i32 0, i64 2), ptr %this, align 8
  %_data = getelementptr inbounds i8, ptr %this, i64 8
  %call = tail call noalias noundef nonnull dereferenceable(8) ptr @_Znwm(i64 noundef 8) #14
  store ptr null, ptr %call, align 8
  store ptr %call, ptr %_data, align 8
  switch i32 %compression, label %sw.default.i [
    i32 0, label %_ZN7Imf_3_212_GLOBAL__N_116checkCompressionENS_11CompressionE.exit
    i32 4, label %_ZN7Imf_3_212_GLOBAL__N_116checkCompressionENS_11CompressionE.exit
    i32 7, label %_ZN7Imf_3_212_GLOBAL__N_116checkCompressionENS_11CompressionE.exit
  ]

sw.default.i:                                     ; preds = %entry
  %exception.i = tail call ptr @__cxa_allocate_exception(i64 72) #13
  invoke void @_ZN7Iex_3_26ArgExcC1EPKc(ptr noundef nonnull align 8 dereferenceable(72) %exception.i, ptr noundef nonnull @.str)
          to label %invoke.cont.i unwind label %lpad.i

invoke.cont.i:                                    ; preds = %sw.default.i
  tail call void @__cxa_throw(ptr nonnull %exception.i, ptr nonnull @_ZTIN7Iex_3_26ArgExcE, ptr nonnull @_ZN7Iex_3_26ArgExcD1Ev) #15
  unreachable

common.resume:                                    ; preds = %ehcleanup, %lpad.i
  %common.resume.op = phi { ptr, i32 } [ %0, %lpad.i ], [ %.pn, %ehcleanup ]
  resume { ptr, i32 } %common.resume.op

lpad.i:                                           ; preds = %sw.default.i
  %0 = landingpad { ptr, i32 }
          cleanup
  tail call void @__cxa_free_exception(ptr %exception.i) #13
  br label %common.resume

_ZN7Imf_3_212_GLOBAL__N_116checkCompressionENS_11CompressionE.exit: ; preds = %entry, %entry, %entry
  call void @_ZN7Imf_3_26HeaderC1EiifRKN9Imath_3_24Vec2IfEEfNS_9LineOrderENS_11CompressionE(ptr noundef nonnull align 8 dereferenceable(49) %newHeader, i32 noundef %width, i32 noundef %height, float noundef %pixelAspectRatio, ptr noundef nonnull align 4 dereferenceable(8) %screenWindowCenter, float noundef %screenWindowWidth, i32 noundef %lineOrder, i32 noundef %compression)
  call void @llvm.lifetime.start.p0(i64 8, ptr nonnull %ref.tmp.i)
  call void @llvm.lifetime.start.p0(i64 8, ptr nonnull %ref.tmp1.i)
  call void @llvm.lifetime.start.p0(i64 8, ptr nonnull %ref.tmp2.i)
  call void @llvm.lifetime.start.p0(i64 8, ptr nonnull %ref.tmp3.i)
  %1 = load atomic i8, ptr @_ZGVZN7Imf_3_218acesChromaticitiesEvE7acesChr acquire, align 8
  %guard.uninitialized.i = icmp eq i8 %1, 0
  br i1 %guard.uninitialized.i, label %init.check.i, label %invoke.cont3, !prof !4

init.check.i:                                     ; preds = %_ZN7Imf_3_212_GLOBAL__N_116checkCompressionENS_11CompressionE.exit
  %2 = call i32 @__cxa_guard_acquire(ptr nonnull @_ZGVZN7Imf_3_218acesChromaticitiesEvE7acesChr) #13
  %tobool.not.i = icmp eq i32 %2, 0
  br i1 %tobool.not.i, label %invoke.cont3, label %init.i

init.i:                                           ; preds = %init.check.i
  store <2 x float> <float 0x3FE782A9A0000000, float 0x3FD0FAACE0000000>, ptr %ref.tmp.i, align 8
  store <2 x float> <float 0.000000e+00, float 1.000000e+00>, ptr %ref.tmp1.i, align 8
  store <2 x float> <float 0x3F1A36E2E0000000, float 0xBFB3B645A0000000>, ptr %ref.tmp2.i, align 8
  store <2 x float> <float 0x3FD49667C0000000, float 0x3FD59C62A0000000>, ptr %ref.tmp3.i, align 8
  invoke void @_ZN7Imf_3_214ChromaticitiesC1ERKN9Imath_3_24Vec2IfEES5_S5_S5_(ptr noundef nonnull align 4 dereferenceable(32) @_ZZN7Imf_3_218acesChromaticitiesEvE7acesChr, ptr noundef nonnull align 4 dereferenceable(8) %ref.tmp.i, ptr noundef nonnull align 4 dereferenceable(8) %ref.tmp1.i, ptr noundef nonnull align 4 dereferenceable(8) %ref.tmp2.i, ptr noundef nonnull align 4 dereferenceable(8) %ref.tmp3.i)
          to label %invoke.cont.i4 unwind label %lpad.i3

invoke.cont.i4:                                   ; preds = %init.i
  call void @__cxa_guard_release(ptr nonnull @_ZGVZN7Imf_3_218acesChromaticitiesEvE7acesChr) #13
  br label %invoke.cont3

lpad.i3:                                          ; preds = %init.i
  %3 = landingpad { ptr, i32 }
          cleanup
  call void @__cxa_guard_abort(ptr nonnull @_ZGVZN7Imf_3_218acesChromaticitiesEvE7acesChr) #13
  br label %ehcleanup

invoke.cont3:                                     ; preds = %invoke.cont.i4, %init.check.i, %_ZN7Imf_3_212_GLOBAL__N_116checkCompressionENS_11CompressionE.exit
  call void @llvm.lifetime.end.p0(i64 8, ptr nonnull %ref.tmp.i)
  call void @llvm.lifetime.end.p0(i64 8, ptr nonnull %ref.tmp1.i)
  call void @llvm.lifetime.end.p0(i64 8, ptr nonnull %ref.tmp2.i)
  call void @llvm.lifetime.end.p0(i64 8, ptr nonnull %ref.tmp3.i)
  invoke void @_ZN7Imf_3_217addChromaticitiesERNS_6HeaderERKNS_14ChromaticitiesE(ptr noundef nonnull align 8 dereferenceable(49) %newHeader, ptr noundef nonnull align 4 dereferenceable(32) @_ZZN7Imf_3_218acesChromaticitiesEvE7acesChr)
          to label %invoke.cont5 unwind label %lpad2

invoke.cont5:                                     ; preds = %invoke.cont3
  call void @llvm.lifetime.start.p0(i64 8, ptr nonnull %ref.tmp.i5)
  call void @llvm.lifetime.start.p0(i64 8, ptr nonnull %ref.tmp1.i6)
  call void @llvm.lifetime.start.p0(i64 8, ptr nonnull %ref.tmp2.i7)
  call void @llvm.lifetime.start.p0(i64 8, ptr nonnull %ref.tmp3.i8)
  %4 = load atomic i8, ptr @_ZGVZN7Imf_3_218acesChromaticitiesEvE7acesChr acquire, align 8
  %guard.uninitialized.i9 = icmp eq i8 %4, 0
  br i1 %guard.uninitialized.i9, label %init.check.i10, label %invoke.cont6, !prof !4

init.check.i10:                                   ; preds = %invoke.cont5
  %5 = call i32 @__cxa_guard_acquire(ptr nonnull @_ZGVZN7Imf_3_218acesChromaticitiesEvE7acesChr) #13
  %tobool.not.i11 = icmp eq i32 %5, 0
  br i1 %tobool.not.i11, label %invoke.cont6, label %init.i12

init.i12:                                         ; preds = %init.check.i10
  store <2 x float> <float 0x3FE782A9A0000000, float 0x3FD0FAACE0000000>, ptr %ref.tmp.i5, align 8
  store <2 x float> <float 0.000000e+00, float 1.000000e+00>, ptr %ref.tmp1.i6, align 8
  store <2 x float> <float 0x3F1A36E2E0000000, float 0xBFB3B645A0000000>, ptr %ref.tmp2.i7, align 8
  store <2 x float> <float 0x3FD49667C0000000, float 0x3FD59C62A0000000>, ptr %ref.tmp3.i8, align 8
  invoke void @_ZN7Imf_3_214ChromaticitiesC1ERKN9Imath_3_24Vec2IfEES5_S5_S5_(ptr noundef nonnull align 4 dereferenceable(32) @_ZZN7Imf_3_218acesChromaticitiesEvE7acesChr, ptr noundef nonnull align 4 dereferenceable(8) %ref.tmp.i5, ptr noundef nonnull align 4 dereferenceable(8) %ref.tmp1.i6, ptr noundef nonnull align 4 dereferenceable(8) %ref.tmp2.i7, ptr noundef nonnull align 4 dereferenceable(8) %ref.tmp3.i8)
          to label %invoke.cont.i18 unwind label %lpad.i17

invoke.cont.i18:                                  ; preds = %init.i12
  call void @__cxa_guard_release(ptr nonnull @_ZGVZN7Imf_3_218acesChromaticitiesEvE7acesChr) #13
  br label %invoke.cont6

lpad.i17:                                         ; preds = %init.i12
  %6 = landingpad { ptr, i32 }
          cleanup
  call void @__cxa_guard_abort(ptr nonnull @_ZGVZN7Imf_3_218acesChromaticitiesEvE7acesChr) #13
  br label %ehcleanup

invoke.cont6:                                     ; preds = %invoke.cont.i18, %init.check.i10, %invoke.cont5
  call void @llvm.lifetime.end.p0(i64 8, ptr nonnull %ref.tmp.i5)
  call void @llvm.lifetime.end.p0(i64 8, ptr nonnull %ref.tmp1.i6)
  call void @llvm.lifetime.end.p0(i64 8, ptr nonnull %ref.tmp2.i7)
  call void @llvm.lifetime.end.p0(i64 8, ptr nonnull %ref.tmp3.i8)
  invoke void @_ZN7Imf_3_217addAdoptedNeutralERNS_6HeaderERKN9Imath_3_24Vec2IfEE(ptr noundef nonnull align 8 dereferenceable(49) %newHeader, ptr noundef nonnull align 4 dereferenceable(8) getelementptr inbounds (%"struct.Imf_3_2::Chromaticities", ptr @_ZZN7Imf_3_218acesChromaticitiesEvE7acesChr, i64 0, i32 3))
          to label %invoke.cont8 unwind label %lpad2

invoke.cont8:                                     ; preds = %invoke.cont6
  %call10 = invoke noalias noundef nonnull dereferenceable(24) ptr @_Znwm(i64 noundef 24) #14
          to label %invoke.cont9 unwind label %lpad2

invoke.cont9:                                     ; preds = %invoke.cont8
  %call11 = call noundef ptr @_ZNKSt7__cxx1112basic_stringIcSt11char_traitsIcESaIcEE5c_strEv(ptr noundef nonnull align 8 dereferenceable(32) %name) #13
  invoke void @_ZN7Imf_3_214RgbaOutputFileC1EPKcRKNS_6HeaderENS_12RgbaChannelsEi(ptr noundef nonnull align 8 dereferenceable(24) %call10, ptr noundef %call11, ptr noundef nonnull align 8 dereferenceable(49) %newHeader, i32 noundef %rgbaChannels, i32 noundef %numThreads)
          to label %invoke.cont13 unwind label %lpad12

invoke.cont13:                                    ; preds = %invoke.cont9
  %7 = load ptr, ptr %_data, align 8
  store ptr %call10, ptr %7, align 8
  %8 = load ptr, ptr %_data, align 8
  %9 = load ptr, ptr %8, align 8
  invoke void @_ZN7Imf_3_214RgbaOutputFile13setYCRoundingEjj(ptr noundef nonnull align 8 dereferenceable(24) %9, i32 noundef 7, i32 noundef 6)
          to label %invoke.cont17 unwind label %lpad2

invoke.cont17:                                    ; preds = %invoke.cont13
  call void @_ZN7Imf_3_26HeaderD1Ev(ptr noundef nonnull align 8 dereferenceable(49) %newHeader) #13
  ret void

lpad2:                                            ; preds = %invoke.cont13, %invoke.cont8, %invoke.cont6, %invoke.cont3
  %10 = landingpad { ptr, i32 }
          cleanup
  br label %ehcleanup

lpad12:                                           ; preds = %invoke.cont9
  %11 = landingpad { ptr, i32 }
          cleanup
  call void @_ZdlPv(ptr noundef nonnull %call10) #16
  br label %ehcleanup

ehcleanup:                                        ; preds = %lpad.i3, %lpad.i17, %lpad2, %lpad12
  %.pn = phi { ptr, i32 } [ %11, %lpad12 ], [ %3, %lpad.i3 ], [ %10, %lpad2 ], [ %6, %lpad.i17 ]
  call void @_ZN7Imf_3_26HeaderD1Ev(ptr noundef nonnull align 8 dereferenceable(49) %newHeader) #13
  br label %common.resume
}